target datalayout = "e-m:e-p270:32:32-p271:32:32-p272:64:64-i64:64-i128:128-f80:128-n8:16:32:64-S128"
target triple = "x86_64-pc-linux-gnu"

%"class.std::__cxx11::basic_string" = type { %"struct.std::__cxx11::basic_string<char>::_Alloc_hider", i64, %union.anon }
%"struct.std::__cxx11::basic_string<char>::_Alloc_hider" = type { ptr }
%union.anon = type { i64, [8 x i8] }
%"class.std::shared_ptr" = type { %"class.std::__shared_ptr" }
%"class.std::__shared_ptr" = type { ptr, %"class.std::__shared_count" }
%"class.std::__shared_count" = type { ptr }
%"class.OpenColorIO_v2_5dev::XmlReaderContainerElt" = type { %"class.OpenColorIO_v2_5dev::XmlReaderElement" }
%"class.OpenColorIO_v2_5dev::XmlReaderElement" = type { ptr, %"class.std::__cxx11::basic_string", i32, %"class.std::__cxx11::basic_string" }
%"class.OpenColorIO_v2_5dev::CTFReaderOpElt" = type { %"class.OpenColorIO_v2_5dev::XmlReaderContainerElt", %"class.std::shared_ptr", i32, i32 }
%"class.OpenColorIO_v2_5dev::CTFArrayMgt.base" = type <{ ptr, i8 }>
%"class.std::shared_ptr.183" = type { %"class.std::__shared_ptr.184" }
%"class.std::__shared_ptr.184" = type { ptr, %"class.std::__shared_count" }
%"class.OpenColorIO_v2_5dev::CTFReaderLut1DElt" = type { %"class.OpenColorIO_v2_5dev::CTFReaderOpElt", %"class.OpenColorIO_v2_5dev::CTFArrayMgt.base", [7 x i8], %"class.OpenColorIO_v2_5dev::CTFIndexMapMgt.base", %"class.std::shared_ptr.183", %"class.OpenColorIO_v2_5dev::IndexMapping" }
%"class.OpenColorIO_v2_5dev::CTFIndexMapMgt.base" = type <{ ptr, i8 }>
%"class.OpenColorIO_v2_5dev::IndexMapping" = type { ptr, i64, [3 x %"class.std::vector.30"] }
%"class.std::vector.30" = type { %"struct.std::_Vector_base.31" }
%"struct.std::_Vector_base.31" = type { %"struct.std::_Vector_base<std::pair<float, float>, std::allocator<std::pair<float, float>>>::_Vector_impl" }
%"struct.std::_Vector_base<std::pair<float, float>, std::allocator<std::pair<float, float>>>::_Vector_impl" = type { %"struct.std::_Vector_base<std::pair<float, float>, std::allocator<std::pair<float, float>>>::_Vector_impl_data" }
%"struct.std::_Vector_base<std::pair<float, float>, std::allocator<std::pair<float, float>>>::_Vector_impl_data" = type { ptr, ptr, ptr }
%"class.OpenColorIO_v2_5dev::CTFIndexMapMgt" = type <{ ptr, i8, [7 x i8] }>

@.str.28 = private unnamed_addr constant [2 x i8] c".\00", align 1
@.str.38 = private unnamed_addr constant [10 x i8] c"Expected \00", align 1
@.str.151 = private unnamed_addr constant [25 x i8] c" IndexMap values, found \00", align 1

; Function Attrs: mustprogress nounwind uwtable
define linkonce_odr hidden void @_ZN19OpenColorIO_v2_5dev14CTFIndexMapMgt14setCompletedIMEb(ptr noundef nonnull align 8 dereferenceable(9) %0, i1 noundef zeroext %1) #4 comdat align 2 {
  %3 = alloca ptr, align 8
  %4 = alloca i8, align 1
  store ptr %0, ptr %3, align 8, !tbaa !125
  %5 = zext i1 %1 to i8
  store i8 %5, ptr %4, align 1, !tbaa !23
  %6 = load ptr, ptr %3, align 8
  %7 = load i8, ptr %4, align 1, !tbaa !23, !range !27, !noundef !28
  %8 = trunc i8 %7 to i1
  %9 = getelementptr inbounds nuw %"class.OpenColorIO_v2_5dev::CTFIndexMapMgt", ptr %6, i32 0, i32 1
  %10 = zext i1 %8 to i8
  store i8 %10, ptr %9, align 8, !tbaa !656
  ret void
}

; Function Attrs: mustprogress uwtable
define hidden void @_ZN19OpenColorIO_v2_5dev17CTFReaderLut1DElt11endIndexMapEj(ptr noundef nonnull align 8 dereferenceable(240) %0, i32 noundef %1) unnamed_addr #5 align 2 {
  %3 = alloca ptr, align 8
  %4 = alloca i32, align 4
  store ptr %0, ptr %3, align 8, !tbaa !654
  store i32 %1, ptr %4, align 4, !tbaa !13
  %5 = load ptr, ptr %3, align 8
  %6 = getelementptr inbounds nuw %"class.OpenColorIO_v2_5dev::CTFReaderLut1DElt", ptr %5, i32 0, i32 5
  %7 = call noundef i64 @_ZNK19OpenColorIO_v2_5dev12IndexMapping12getDimensionEv(ptr noundef nonnull align 8 dereferenceable(88) %6)
  %8 = load i32, ptr %4, align 4, !tbaa !13
  %9 = zext i32 %8 to i64
  %10 = icmp ne i64 %7, %9
  br i1 %10, label %11, label %15

11:                                               ; preds = %2
  %12 = getelementptr inbounds nuw %"class.OpenColorIO_v2_5dev::CTFReaderLut1DElt", ptr %5, i32 0, i32 5
  %13 = call noundef i64 @_ZNK19OpenColorIO_v2_5dev12IndexMapping12getDimensionEv(ptr noundef nonnull align 8 dereferenceable(88) %12)
  %14 = load i32, ptr %4, align 4, !tbaa !13
  call void @_ZN19OpenColorIO_v2_5dev12_GLOBAL__N_16ThrowMIA10_cJmPKcjS4_EEEvRKNS_16XmlReaderElementERKT_DpT0_(ptr noundef nonnull align 8 dereferenceable(80) %5, ptr noundef nonnull align 1 dereferenceable(10) @.str.38, i64 noundef %13, ptr noundef @.str.151, i32 noundef %14, ptr noundef @.str.28)
  br label %15

15:                                               ; preds = %11, %2
  %16 = getelementptr inbounds nuw %"class.OpenColorIO_v2_5dev::CTFReaderLut1DElt", ptr %5, i32 0, i32 5
  call void @_ZNK19OpenColorIO_v2_5dev12IndexMapping8validateEv(ptr noundef nonnull align 8 dereferenceable(88) %16)
  %17 = getelementptr inbounds i8, ptr %5, i64 120
  call void @_ZN19OpenColorIO_v2_5dev14CTFIndexMapMgt14setCompletedIMEb(ptr noundef nonnull align 8 dereferenceable(9) %17, i1 noundef zeroext true)
  ret void
}