; Function Attrs: mustprogress uwtable
define hidden void @_ZN19OpenColorIO_v2_5dev17CTFReaderLut1DElt11endIndexMapEj(ptr noundef nonnull align 8 dereferenceable(240) %0, i32 noundef %1) unnamed_addr #4 align 2 {
  %3 = getelementptr inbounds nuw i8, ptr %0, i64 152
  %4 = tail call noundef i64 @_ZNK19OpenColorIO_v2_5dev12IndexMapping12getDimensionEv(ptr noundef nonnull align 8 dereferenceable(88) %3)
  %5 = zext i32 %1 to i64
  %.not = icmp eq i64 %4, %5
  br i1 %.not, label %8, label %6

6:                                                ; preds = %2
  %7 = tail call noundef i64 @_ZNK19OpenColorIO_v2_5dev12IndexMapping12getDimensionEv(ptr noundef nonnull align 8 dereferenceable(88) %3)
  tail call fastcc void @_ZN19OpenColorIO_v2_5dev12_GLOBAL__N_16ThrowMIA10_cJmPKcjS4_EEEvRKNS_16XmlReaderElementERKT_DpT0_(ptr noundef nonnull align 8 dereferenceable(80) %0, i64 noundef %7, i32 noundef %1)
  br label %8

8:                                                ; preds = %6, %2
  tail call void @_ZNK19OpenColorIO_v2_5dev12IndexMapping8validateEv(ptr noundef nonnull align 8 dereferenceable(88) %3)
  %9 = getelementptr inbounds nuw i8, ptr %0, i64 128
  store i8 1, ptr %9, align 8, !tbaa !1105
  ret void
}